; Function Attrs: nounwind uwtable
define internal range(i32 -1, 1) i32 @np_ushort(ptr noundef readonly captures(none) %0, ptr noundef writeonly captures(none) %1, ptr noundef %2, ptr noundef readonly captures(none) %3) #0 {
  %5 = alloca i64, align 8
  call void @llvm.lifetime.start.p0(i64 8, ptr nonnull %5) #7
  %6 = call fastcc i32 @get_long(ptr noundef %0, ptr noundef %2, ptr noundef %5)
  %7 = icmp slt i32 %6, 0
  br i1 %7, label %8, label %22

8:                                                ; preds = %4
  %9 = load ptr, ptr @PyExc_OverflowError, align 8, !tbaa !17
  %10 = tail call i32 @PyErr_ExceptionMatches(ptr noundef %9) #7
  %.not = icmp eq i32 %10, 0
  br i1 %.not, label %37, label %11

11:                                               ; preds = %8
  %12 = getelementptr inbounds nuw i8, ptr %3, i64 8
  %13 = load i64, ptr %12, align 8, !tbaa !67
  %14 = shl i64 %13, 3
  %15 = sub i64 64, %14
  %16 = getelementptr inbounds nuw i8, ptr %0, i64 24
  %17 = load ptr, ptr %16, align 8, !tbaa !16
  %18 = load i8, ptr %3, align 8, !tbaa !49
  %19 = sext i8 %18 to i32
  %20 = lshr i64 -1, %15
  %21 = tail call ptr (ptr, ptr, ...) @PyErr_Format(ptr noundef %17, ptr noundef nonnull @.str.51, i32 noundef %19, i64 noundef %20) #7
  br label %37

22:                                               ; preds = %4
  %23 = load i64, ptr %5, align 8, !tbaa !81
  %or.cond = icmp ugt i64 %23, 65535
  br i1 %or.cond, label %24, label %35

24:                                               ; preds = %22
  %25 = getelementptr inbounds nuw i8, ptr %3, i64 8
  %26 = load i64, ptr %25, align 8, !tbaa !67
  %27 = shl i64 %26, 3
  %28 = sub i64 64, %27
  %29 = getelementptr inbounds nuw i8, ptr %0, i64 24
  %30 = load ptr, ptr %29, align 8, !tbaa !16
  %31 = load i8, ptr %3, align 8, !tbaa !49
  %32 = sext i8 %31 to i32
  %33 = lshr i64 -1, %28
  %34 = tail call ptr (ptr, ptr, ...) @PyErr_Format(ptr noundef %30, ptr noundef nonnull @.str.51, i32 noundef %32, i64 noundef %33) #7
  br label %37

35:                                               ; preds = %22
  %36 = trunc nuw i64 %23 to i16
  store i16 %36, ptr %1, align 1
  br label %37

37:                                               ; preds = %8, %35, %24, %11
  %.0 = phi i32 [ -1, %11 ], [ -1, %24 ], [ 0, %35 ], [ -1, %8 ]
  call void @llvm.lifetime.end.p0(i64 8, ptr nonnull %5) #7
  ret i32 %.0
}